target datalayout = "e-m:e-p270:32:32-p271:32:32-p272:64:64-i64:64-i128:128-f80:128-n8:16:32:64-S128"
target triple = "x86_64-pc-linux-gnu"

%struct.Tree_Sto_t_ = type { i32, i32, [16 x i32], [16 x i32], [16 x i32], [16 x i32], [16 x %struct.Vec_Int_t_], ptr }
%struct.Vec_Int_t_ = type { i32, i32, ptr }

@.str = private unnamed_addr constant [21 x i8] c"Tree with %d nodes:\0A\00", align 1
@.str.1 = private unnamed_addr constant [50 x i8] c"Level %2d  Var %2d : %s  Nodes = %3d  Cofs = %3d\0A\00", align 1
@.str.2 = private unnamed_addr constant [2 x i8] c"*\00", align 1
@.str.3 = private unnamed_addr constant [2 x i8] c" \00", align 1

; Function Attrs: inlinehint nounwind uwtable
define internal i32 @Vec_IntSize(ptr noundef %0) #4 {
  %2 = alloca ptr, align 8
  store ptr %0, ptr %2, align 8, !tbaa !21
  %3 = load ptr, ptr %2, align 8, !tbaa !21
  %4 = getelementptr inbounds nuw %struct.Vec_Int_t_, ptr %3, i32 0, i32 1
  %5 = load i32, ptr %4, align 4, !tbaa !23
  ret i32 %5
}

; Function Attrs: nounwind uwtable
define i32 @Gia_ManTreeCountNodes(ptr noundef %0) #0 {
  %2 = alloca ptr, align 8
  %3 = alloca i32, align 4
  %4 = alloca i32, align 4
  store ptr %0, ptr %2, align 8, !tbaa !3
  call void @llvm.lifetime.start.p0(i64 4, ptr %3) #13
  call void @llvm.lifetime.start.p0(i64 4, ptr %4) #13
  store i32 0, ptr %4, align 4, !tbaa !9
  store i32 0, ptr %3, align 4, !tbaa !9
  br label %5

5:                                                ; preds = %17, %1
  %6 = load i32, ptr %3, align 4, !tbaa !9
  %7 = icmp slt i32 %6, 16
  br i1 %7, label %8, label %20

8:                                                ; preds = %5
  %9 = load ptr, ptr %2, align 8, !tbaa !3
  %10 = getelementptr inbounds nuw %struct.Tree_Sto_t_, ptr %9, i32 0, i32 5
  %11 = load i32, ptr %3, align 4, !tbaa !9
  %12 = sext i32 %11 to i64
  %13 = getelementptr inbounds [16 x i32], ptr %10, i64 0, i64 %12
  %14 = load i32, ptr %13, align 4, !tbaa !9
  %15 = load i32, ptr %4, align 4, !tbaa !9
  %16 = add nsw i32 %15, %14
  store i32 %16, ptr %4, align 4, !tbaa !9
  br label %17

17:                                               ; preds = %8
  %18 = load i32, ptr %3, align 4, !tbaa !9
  %19 = add nsw i32 %18, 1
  store i32 %19, ptr %3, align 4, !tbaa !9
  br label %5, !llvm.loop !29

20:                                               ; preds = %5
  %21 = load i32, ptr %4, align 4, !tbaa !9
  call void @llvm.lifetime.end.p0(i64 4, ptr %4) #13
  call void @llvm.lifetime.end.p0(i64 4, ptr %3) #13
  ret i32 %21
}

; Function Attrs: nounwind uwtable
define void @Gia_ManTreePrint(ptr noundef %0) #0 {
  %2 = alloca ptr, align 8
  %3 = alloca i32, align 4
  store ptr %0, ptr %2, align 8, !tbaa !3
  call void @llvm.lifetime.start.p0(i64 4, ptr %3) #13
  %4 = load ptr, ptr %2, align 8, !tbaa !3
  %5 = call i32 @Gia_ManTreeCountNodes(ptr noundef %4)
  %6 = call i32 (ptr, ...) @printf(ptr noundef @.str, i32 noundef %5)
  %7 = load ptr, ptr %2, align 8, !tbaa !3
  %8 = getelementptr inbounds nuw %struct.Tree_Sto_t_, ptr %7, i32 0, i32 0
  %9 = load i32, ptr %8, align 8, !tbaa !17
  %10 = sub nsw i32 %9, 1
  store i32 %10, ptr %3, align 4, !tbaa !9
  br label %11

11:                                               ; preds = %44, %1
  %12 = load i32, ptr %3, align 4, !tbaa !9
  %13 = icmp sge i32 %12, 0
  br i1 %13, label %14, label %47

14:                                               ; preds = %11
  %15 = load i32, ptr %3, align 4, !tbaa !9
  %16 = load ptr, ptr %2, align 8, !tbaa !3
  %17 = getelementptr inbounds nuw %struct.Tree_Sto_t_, ptr %16, i32 0, i32 4
  %18 = load i32, ptr %3, align 4, !tbaa !9
  %19 = sext i32 %18 to i64
  %20 = getelementptr inbounds [16 x i32], ptr %17, i64 0, i64 %19
  %21 = load i32, ptr %20, align 4, !tbaa !9
  %22 = load ptr, ptr %2, align 8, !tbaa !3
  %23 = getelementptr inbounds nuw %struct.Tree_Sto_t_, ptr %22, i32 0, i32 2
  %24 = load i32, ptr %3, align 4, !tbaa !9
  %25 = sext i32 %24 to i64
  %26 = getelementptr inbounds [16 x i32], ptr %23, i64 0, i64 %25
  %27 = load i32, ptr %26, align 4, !tbaa !9
  %28 = icmp ne i32 %27, 0
  %29 = select i1 %28, ptr @.str.2, ptr @.str.3
  %30 = load ptr, ptr %2, align 8, !tbaa !3
  %31 = getelementptr inbounds nuw %struct.Tree_Sto_t_, ptr %30, i32 0, i32 5
  %32 = load i32, ptr %3, align 4, !tbaa !9
  %33 = sext i32 %32 to i64
  %34 = getelementptr inbounds [16 x i32], ptr %31, i64 0, i64 %33
  %35 = load i32, ptr %34, align 4, !tbaa !9
  %36 = load ptr, ptr %2, align 8, !tbaa !3
  %37 = getelementptr inbounds nuw %struct.Tree_Sto_t_, ptr %36, i32 0, i32 6
  %38 = getelementptr inbounds [16 x %struct.Vec_Int_t_], ptr %37, i64 0, i64 0
  %39 = load i32, ptr %3, align 4, !tbaa !9
  %40 = sext i32 %39 to i64
  %41 = getelementptr inbounds %struct.Vec_Int_t_, ptr %38, i64 %40
  %42 = call i32 @Vec_IntSize(ptr noundef %41)
  %43 = call i32 (ptr, ...) @printf(ptr noundef @.str.1, i32 noundef %15, i32 noundef %21, ptr noundef %29, i32 noundef %35, i32 noundef %42)
  br label %44

44:                                               ; preds = %14
  %45 = load i32, ptr %3, align 4, !tbaa !9
  %46 = add nsw i32 %45, -1
  store i32 %46, ptr %3, align 4, !tbaa !9
  br label %11, !llvm.loop !30

47:                                               ; preds = %11
  call void @llvm.lifetime.end.p0(i64 4, ptr %3) #13
  ret void
}