; Function Attrs: nofree nounwind uwtable
define void @Gia_ManTreePrint(ptr noundef readonly captures(none) %0) local_unnamed_addr #7 {
  %2 = getelementptr inbounds nuw i8, ptr %0, i64 200
  br label %3

3:                                                ; preds = %3, %1
  %indvars.iv.i = phi i64 [ 0, %1 ], [ %indvars.iv.next.i, %3 ]
  %.07.i = phi i32 [ 0, %1 ], [ %6, %3 ]
  %4 = getelementptr inbounds nuw [16 x i32], ptr %2, i64 0, i64 %indvars.iv.i
  %5 = load i32, ptr %4, align 4, !tbaa !4
  %6 = add nsw i32 %5, %.07.i
  %indvars.iv.next.i = add nuw nsw i64 %indvars.iv.i, 1
  %exitcond.not.i = icmp eq i64 %indvars.iv.next.i, 16
  br i1 %exitcond.not.i, label %Gia_ManTreeCountNodes.exit, label %3, !llvm.loop !27

Gia_ManTreeCountNodes.exit:                       ; preds = %3
  %7 = tail call i32 (ptr, ...) @printf(ptr noundef nonnull dereferenceable(1) @.str, i32 noundef %6)
  %8 = load i32, ptr %0, align 8, !tbaa !15
  %9 = icmp sgt i32 %8, 0
  br i1 %9, label %.lr.ph, label %._crit_edge

.lr.ph:                                           ; preds = %Gia_ManTreeCountNodes.exit
  %10 = getelementptr inbounds nuw i8, ptr %0, i64 136
  %11 = getelementptr inbounds nuw i8, ptr %0, i64 8
  %12 = getelementptr i8, ptr %0, i64 268
  %13 = zext nneg i32 %8 to i64
  br label %14

14:                                               ; preds = %.lr.ph, %14
  %indvars.iv = phi i64 [ %13, %.lr.ph ], [ %indvars.iv.next, %14 ]
  %indvars.iv.next = add nsw i64 %indvars.iv, -1
  %15 = getelementptr inbounds nuw [16 x i32], ptr %10, i64 0, i64 %indvars.iv.next
  %16 = load i32, ptr %15, align 4, !tbaa !4
  %17 = getelementptr inbounds nuw [16 x i32], ptr %11, i64 0, i64 %indvars.iv.next
  %18 = load i32, ptr %17, align 4, !tbaa !4
  %.not = icmp eq i32 %18, 0
  %19 = select i1 %.not, ptr @.str.3, ptr @.str.2
  %20 = getelementptr inbounds nuw [16 x i32], ptr %2, i64 0, i64 %indvars.iv.next
  %21 = load i32, ptr %20, align 4, !tbaa !4
  %.idx = shl nuw nsw i64 %indvars.iv.next, 4
  %22 = getelementptr i8, ptr %12, i64 %.idx
  %.val = load i32, ptr %22, align 4, !tbaa !18
  %23 = trunc nuw nsw i64 %indvars.iv.next to i32
  %24 = tail call i32 (ptr, ...) @printf(ptr noundef nonnull dereferenceable(1) @.str.1, i32 noundef %23, i32 noundef %16, ptr noundef nonnull %19, i32 noundef %21, i32 noundef %.val)
  %25 = icmp samesign ugt i64 %indvars.iv, 1
  br i1 %25, label %14, label %._crit_edge, !llvm.loop !28

._crit_edge:                                      ; preds = %14, %Gia_ManTreeCountNodes.exit
  ret void
}